; Function Attrs: mustprogress uwtable
define hidden noundef range(i32 -1, 1) i32 @_ZN4ncnn9Extractor5inputEiRKNS_3MatE(ptr noundef nonnull readonly align 8 captures(none) dereferenceable(16) %0, i32 noundef %1, ptr noundef nonnull readonly align 8 dereferenceable(72) %2) local_unnamed_addr #2 align 2 {
  %4 = icmp slt i32 %1, 0
  br i1 %4, label %_ZN4ncnn3MataSERKS0_.exit, label %5

5:                                                ; preds = %3
  %6 = getelementptr inbounds nuw i8, ptr %0, i64 8
  %7 = load ptr, ptr %6, align 8, !tbaa !213
  %8 = getelementptr inbounds nuw i8, ptr %7, i64 8
  %9 = getelementptr inbounds nuw i8, ptr %7, i64 16
  %10 = load ptr, ptr %9, align 8, !tbaa !109
  %11 = load ptr, ptr %8, align 8, !tbaa !62
  %12 = ptrtoint ptr %10 to i64
  %13 = ptrtoint ptr %11 to i64
  %14 = sub i64 %12, %13
  %15 = sdiv exact i64 %14, 72
  %16 = trunc i64 %15 to i32
  %.not = icmp slt i32 %1, %16
  br i1 %.not, label %17, label %_ZN4ncnn3MataSERKS0_.exit

17:                                               ; preds = %5
  %18 = zext nneg i32 %1 to i64
  %19 = getelementptr inbounds nuw %"class.ncnn::Mat", ptr %11, i64 %18
  %20 = icmp eq ptr %19, %2
  br i1 %20, label %_ZN4ncnn3MataSERKS0_.exit, label %21

21:                                               ; preds = %17
  %22 = getelementptr inbounds nuw i8, ptr %2, i64 8
  %23 = load ptr, ptr %22, align 8, !tbaa !97
  %.not.i = icmp eq ptr %23, null
  br i1 %.not.i, label %26, label %24

24:                                               ; preds = %21
  %25 = atomicrmw add ptr %23, i32 1 acq_rel, align 4
  br label %26

26:                                               ; preds = %24, %21
  %27 = getelementptr inbounds nuw i8, ptr %19, i64 8
  %28 = load ptr, ptr %27, align 8, !tbaa !97
  %.not.i6 = icmp eq ptr %28, null
  br i1 %.not.i6, label %_ZN4ncnn3Mat7releaseEv.exit, label %29

29:                                               ; preds = %26
  %30 = atomicrmw add ptr %28, i32 -1 acq_rel, align 4
  %31 = icmp eq i32 %30, 1
  br i1 %31, label %32, label %_ZN4ncnn3Mat7releaseEv.exit

32:                                               ; preds = %29
  %33 = getelementptr inbounds nuw i8, ptr %19, i64 32
  %34 = load ptr, ptr %33, align 8, !tbaa !99
  %.not3.i = icmp eq ptr %34, null
  %35 = load ptr, ptr %19, align 8, !tbaa !100
  br i1 %.not3.i, label %40, label %36

36:                                               ; preds = %32
  %37 = load ptr, ptr %34, align 8, !tbaa !4
  %38 = getelementptr inbounds nuw i8, ptr %37, i64 24
  %39 = load ptr, ptr %38, align 8
  tail call void %39(ptr noundef nonnull align 8 dereferenceable(8) %34, ptr noundef %35)
  br label %_ZN4ncnn3Mat7releaseEv.exit

40:                                               ; preds = %32
  %.not.i7 = icmp eq ptr %35, null
  br i1 %.not.i7, label %_ZN4ncnn3Mat7releaseEv.exit, label %41

41:                                               ; preds = %40
  tail call void @free(ptr noundef nonnull %35) #26
  br label %_ZN4ncnn3Mat7releaseEv.exit

_ZN4ncnn3Mat7releaseEv.exit:                      ; preds = %41, %40, %26, %29, %36
  %42 = getelementptr inbounds nuw i8, ptr %19, i64 16
  %43 = getelementptr inbounds nuw i8, ptr %19, i64 24
  %44 = getelementptr inbounds nuw i8, ptr %19, i64 40
  %45 = getelementptr inbounds nuw i8, ptr %19, i64 44
  %46 = getelementptr inbounds nuw i8, ptr %19, i64 48
  %47 = getelementptr inbounds nuw i8, ptr %19, i64 52
  %48 = getelementptr inbounds nuw i8, ptr %19, i64 56
  %49 = getelementptr inbounds nuw i8, ptr %19, i64 64
  store i64 0, ptr %49, align 8, !tbaa !94
  tail call void @llvm.memset.p0.i64(ptr noundef nonnull align 8 dereferenceable(28) %19, i8 0, i64 28, i1 false)
  tail call void @llvm.memset.p0.i64(ptr noundef nonnull align 8 dereferenceable(20) %44, i8 0, i64 20, i1 false)
  %50 = load ptr, ptr %2, align 8, !tbaa !100
  store ptr %50, ptr %19, align 8, !tbaa !100
  %51 = load ptr, ptr %22, align 8, !tbaa !97
  store ptr %51, ptr %27, align 8, !tbaa !97
  %52 = getelementptr inbounds nuw i8, ptr %2, i64 16
  %53 = load i64, ptr %52, align 8, !tbaa !101
  store i64 %53, ptr %42, align 8, !tbaa !101
  %54 = getelementptr inbounds nuw i8, ptr %2, i64 24
  %55 = load i32, ptr %54, align 8, !tbaa !102
  store i32 %55, ptr %43, align 8, !tbaa !102
  %56 = getelementptr inbounds nuw i8, ptr %2, i64 32
  %57 = load ptr, ptr %56, align 8, !tbaa !99
  %58 = getelementptr inbounds nuw i8, ptr %19, i64 32
  store ptr %57, ptr %58, align 8, !tbaa !99
  %59 = getelementptr inbounds nuw i8, ptr %2, i64 40
  %60 = load i32, ptr %59, align 8, !tbaa !63
  store i32 %60, ptr %44, align 8, !tbaa !63
  %61 = getelementptr inbounds nuw i8, ptr %2, i64 44
  %62 = load i32, ptr %61, align 4, !tbaa !103
  store i32 %62, ptr %45, align 4, !tbaa !103
  %63 = getelementptr inbounds nuw i8, ptr %2, i64 48
  %64 = load i32, ptr %63, align 8, !tbaa !104
  store i32 %64, ptr %46, align 8, !tbaa !104
  %65 = getelementptr inbounds nuw i8, ptr %2, i64 52
  %66 = load i32, ptr %65, align 4, !tbaa !105
  store i32 %66, ptr %47, align 4, !tbaa !105
  %67 = getelementptr inbounds nuw i8, ptr %2, i64 56
  %68 = load i32, ptr %67, align 8, !tbaa !106
  store i32 %68, ptr %48, align 8, !tbaa !106
  %69 = getelementptr inbounds nuw i8, ptr %2, i64 64
  %70 = load i64, ptr %69, align 8, !tbaa !94
  store i64 %70, ptr %49, align 8, !tbaa !94
  br label %_ZN4ncnn3MataSERKS0_.exit

_ZN4ncnn3MataSERKS0_.exit:                        ; preds = %_ZN4ncnn3Mat7releaseEv.exit, %17, %3, %5
  %.0 = phi i32 [ -1, %5 ], [ -1, %3 ], [ 0, %17 ], [ 0, %_ZN4ncnn3Mat7releaseEv.exit ]
  ret i32 %.0
}